
main.elf:     file format elf32-littlearm

Disassembly of section .text:

00000000 <_start>:
   0:	e3a00453 	mov	r0, #1392508928	; 0x53000000
   4:	e3a01000 	mov	r1, #0	; 0x0
   8:	e5801000 	str	r1, [r0]
   c:	e3a00313 	mov	r0, #1275068416	; 0x4c000000
  10:	e3e01000 	mvn	r1, #0	; 0x0
  14:	e5801000 	str	r1, [r0]
  18:	e59f0044 	ldr	r0, [pc, #68]	; 64 <.text+0x64>
  1c:	e3a01005 	mov	r1, #5	; 0x5
  20:	e5801000 	str	r1, [r0]
  24:	ee110f10 	mrc	15, 0, r0, cr1, cr0, {0}
  28:	e3800103 	orr	r0, r0, #-1073741824	; 0xc0000000
  2c:	ee010f10 	mcr	15, 0, r0, cr1, cr0, {0}
  30:	e59f0030 	ldr	r0, [pc, #48]	; 68 <.text+0x68>
  34:	e59f1030 	ldr	r1, [pc, #48]	; 6c <.text+0x6c>
  38:	e5801000 	str	r1, [r0]
  3c:	e3a01000 	mov	r1, #0	; 0x0
  40:	e5910000 	ldr	r0, [r1]
  44:	e5811000 	str	r1, [r1]
  48:	e5912000 	ldr	r2, [r1]
  4c:	e1510002 	cmp	r1, r2
  50:	e59fd018 	ldr	sp, [pc, #24]	; 70 <.text+0x70>
  54:	03a0da01 	moveq	sp, #4096	; 0x1000
  58:	05810000 	streq	r0, [r1]
  5c:	eb000004 	bl	74 <main>

00000060 <halt>:
  60:	eafffffe 	b	60 <halt>
  64:	4c000014 	stcmi	0, cr0, [r0], {20}
  68:	4c000004 	stcmi	0, cr0, [r0], {4}
  6c:	0005c011 	andeq	ip, r5, r1, lsl r0
  70:	40001000 	andmi	r1, r0, r0

00000074 <main>:
  74:	e1a0c00d 	mov	ip, sp
  78:	e92dd800 	stmdb	sp!, {fp, ip, lr, pc}
  7c:	e24cb004 	sub	fp, ip, #4	; 0x4
  80:	eb000029 	bl	12c <Init_UART1>
  84:	e59f0030 	ldr	r0, [pc, #48]	; bc <.text+0xbc>
  88:	eb000079 	bl	274 <SendString>
  8c:	e59f302c 	ldr	r3, [pc, #44]	; c0 <.text+0xc0>
  90:	e5d33000 	ldrb	r3, [r3]
  94:	e1a00003 	mov	r0, r3
  98:	eb00004f 	bl	1dc <SendChar>
  9c:	e59f201c 	ldr	r2, [pc, #28]	; c0 <.text+0xc0>
  a0:	e59f3018 	ldr	r3, [pc, #24]	; c0 <.text+0xc0>
  a4:	e5d33000 	ldrb	r3, [r3]
  a8:	e2833001 	add	r3, r3, #1	; 0x1
  ac:	e5c23000 	strb	r3, [r2]
  b0:	e3a00ffa 	mov	r0, #1000	; 0x3e8
  b4:	eb000002 	bl	c4 <delay>
  b8:	eafffff3 	b	8c <main+0x18>
  bc:	000002bc 	streqh	r0, [r0], -ip
  c0:	00000800 	andeq	r0, r0, r0, lsl #16

000000c4 <delay>:
  c4:	e1a0c00d 	mov	ip, sp
  c8:	e92dd800 	stmdb	sp!, {fp, ip, lr, pc}
  cc:	e24cb004 	sub	fp, ip, #4	; 0x4
  d0:	e24dd00c 	sub	sp, sp, #12	; 0xc
  d4:	e50b0010 	str	r0, [fp, #-16]
  d8:	e3a03000 	mov	r3, #0	; 0x0
  dc:	e50b3014 	str	r3, [fp, #-20]
  e0:	e51b2014 	ldr	r2, [fp, #-20]
  e4:	e51b3010 	ldr	r3, [fp, #-16]
  e8:	e1520003 	cmp	r2, r3
  ec:	ca00000c 	bgt	124 <delay+0x60>
  f0:	e3a03000 	mov	r3, #0	; 0x0
  f4:	e50b3018 	str	r3, [fp, #-24]
  f8:	e51b3018 	ldr	r3, [fp, #-24]
  fc:	e3530064 	cmp	r3, #100	; 0x64
 100:	ca000003 	bgt	114 <delay+0x50>
 104:	e51b3018 	ldr	r3, [fp, #-24]
 108:	e2833001 	add	r3, r3, #1	; 0x1
 10c:	e50b3018 	str	r3, [fp, #-24]
 110:	eafffff8 	b	f8 <delay+0x34>
 114:	e51b3014 	ldr	r3, [fp, #-20]
 118:	e2833001 	add	r3, r3, #1	; 0x1
 11c:	e50b3014 	str	r3, [fp, #-20]
 120:	eaffffee 	b	e0 <delay+0x1c>
 124:	e24bd00c 	sub	sp, fp, #12	; 0xc
 128:	e89da800 	ldmia	sp, {fp, sp, pc}

0000012c <Init_UART1>:
 12c:	e1a0c00d 	mov	ip, sp
 130:	e92dd800 	stmdb	sp!, {fp, ip, lr, pc}
 134:	e24cb004 	sub	fp, ip, #4	; 0x4
 138:	e3a02456 	mov	r2, #1442840576	; 0x56000000
 13c:	e2822070 	add	r2, r2, #112	; 0x70
 140:	e3a03456 	mov	r3, #1442840576	; 0x56000000
 144:	e2833070 	add	r3, r3, #112	; 0x70
 148:	e5933000 	ldr	r3, [r3]
 14c:	e3c33c0f 	bic	r3, r3, #3840	; 0xf00
 150:	e5823000 	str	r3, [r2]
 154:	e3a02456 	mov	r2, #1442840576	; 0x56000000
 158:	e2822070 	add	r2, r2, #112	; 0x70
 15c:	e3a03456 	mov	r3, #1442840576	; 0x56000000
 160:	e2833070 	add	r3, r3, #112	; 0x70
 164:	e5933000 	ldr	r3, [r3]
 168:	e3833c0a 	orr	r3, r3, #2560	; 0xa00
 16c:	e5823000 	str	r3, [r2]
 170:	e3a02456 	mov	r2, #1442840576	; 0x56000000
 174:	e2822078 	add	r2, r2, #120	; 0x78
 178:	e3a03456 	mov	r3, #1442840576	; 0x56000000
 17c:	e2833078 	add	r3, r3, #120	; 0x78
 180:	e5933000 	ldr	r3, [r3]
 184:	e3c33030 	bic	r3, r3, #48	; 0x30
 188:	e5823000 	str	r3, [r2]
 18c:	e3a02901 	mov	r2, #16384	; 0x4000
 190:	e2822245 	add	r2, r2, #1342177284	; 0x50000004
 194:	e3a03901 	mov	r3, #16384	; 0x4000
 198:	e2833245 	add	r3, r3, #1342177284	; 0x50000004
 19c:	e5933000 	ldr	r3, [r3]
 1a0:	e3833005 	orr	r3, r3, #5	; 0x5
 1a4:	e5823000 	str	r3, [r2]
 1a8:	e3a03205 	mov	r3, #1342177280	; 0x50000000
 1ac:	e2833901 	add	r3, r3, #16384	; 0x4000
 1b0:	e2833028 	add	r3, r3, #40	; 0x28
 1b4:	e3a0201a 	mov	r2, #26	; 0x1a
 1b8:	e5832000 	str	r2, [r3]
 1bc:	e3a02205 	mov	r2, #1342177280	; 0x50000000
 1c0:	e2822901 	add	r2, r2, #16384	; 0x4000
 1c4:	e3a03205 	mov	r3, #1342177280	; 0x50000000
 1c8:	e2833901 	add	r3, r3, #16384	; 0x4000
 1cc:	e5933000 	ldr	r3, [r3]
 1d0:	e3833003 	orr	r3, r3, #3	; 0x3
 1d4:	e5823000 	str	r3, [r2]
 1d8:	e89da800 	ldmia	sp, {fp, sp, pc}

000001dc <SendChar>:
 1dc:	e1a0c00d 	mov	ip, sp
 1e0:	e92dd800 	stmdb	sp!, {fp, ip, lr, pc}
 1e4:	e24cb004 	sub	fp, ip, #4	; 0x4
 1e8:	e24dd004 	sub	sp, sp, #4	; 0x4
 1ec:	e1a03000 	mov	r3, r0
 1f0:	e54b300d 	strb	r3, [fp, #-13]
 1f4:	e3a03205 	mov	r3, #1342177280	; 0x50000000
 1f8:	e2833901 	add	r3, r3, #16384	; 0x4000
 1fc:	e2833010 	add	r3, r3, #16	; 0x10
 200:	e5933000 	ldr	r3, [r3]
 204:	e2033004 	and	r3, r3, #4	; 0x4
 208:	e3530000 	cmp	r3, #0	; 0x0
 20c:	1a000000 	bne	214 <SendChar+0x38>
 210:	eafffff7 	b	1f4 <SendChar+0x18>
 214:	e3a03205 	mov	r3, #1342177280	; 0x50000000
 218:	e2833901 	add	r3, r3, #16384	; 0x4000
 21c:	e2833020 	add	r3, r3, #32	; 0x20
 220:	e55b200d 	ldrb	r2, [fp, #-13]
 224:	e5832000 	str	r2, [r3]
 228:	e89da808 	ldmia	sp, {r3, fp, sp, pc}

0000022c <ReciveChar>:
 22c:	e1a0c00d 	mov	ip, sp
 230:	e92dd800 	stmdb	sp!, {fp, ip, lr, pc}
 234:	e24cb004 	sub	fp, ip, #4	; 0x4
 238:	e3a03205 	mov	r3, #1342177280	; 0x50000000
 23c:	e2833901 	add	r3, r3, #16384	; 0x4000
 240:	e2833010 	add	r3, r3, #16	; 0x10
 244:	e5933000 	ldr	r3, [r3]
 248:	e2033001 	and	r3, r3, #1	; 0x1
 24c:	e3530000 	cmp	r3, #0	; 0x0
 250:	1a000000 	bne	258 <ReciveChar+0x2c>
 254:	eafffff7 	b	238 <ReciveChar+0xc>
 258:	e3a03205 	mov	r3, #1342177280	; 0x50000000
 25c:	e2833901 	add	r3, r3, #16384	; 0x4000
 260:	e2833024 	add	r3, r3, #36	; 0x24
 264:	e5933000 	ldr	r3, [r3]
 268:	e20330ff 	and	r3, r3, #255	; 0xff
 26c:	e1a00003 	mov	r0, r3
 270:	e89da800 	ldmia	sp, {fp, sp, pc}

00000274 <SendString>:
 274:	e1a0c00d 	mov	ip, sp
 278:	e92dd800 	stmdb	sp!, {fp, ip, lr, pc}
 27c:	e24cb004 	sub	fp, ip, #4	; 0x4
 280:	e24dd004 	sub	sp, sp, #4	; 0x4
 284:	e50b0010 	str	r0, [fp, #-16]
 288:	e51b3010 	ldr	r3, [fp, #-16]
 28c:	e5d33000 	ldrb	r3, [r3]
 290:	e3530000 	cmp	r3, #0	; 0x0
 294:	0a000007 	beq	2b8 <SendString+0x44>
 298:	e51b3010 	ldr	r3, [fp, #-16]
 29c:	e5d33000 	ldrb	r3, [r3]
 2a0:	e1a00003 	mov	r0, r3
 2a4:	ebffffcc 	bl	1dc <SendChar>
 2a8:	e51b3010 	ldr	r3, [fp, #-16]
 2ac:	e2833001 	add	r3, r3, #1	; 0x1
 2b0:	e50b3010 	str	r3, [fp, #-16]
 2b4:	eafffff3 	b	288 <SendString+0x14>
 2b8:	e89da808 	ldmia	sp, {r3, fp, sp, pc}