
main.elf:     file format elf32-littlearm

Disassembly of section .text:

00000000 <_start>:
   0:	e3a00453 	mov	r0, #1392508928	; 0x53000000
   4:	e3a01000 	mov	r1, #0	; 0x0
   8:	e5801000 	str	r1, [r0]
   c:	e3a00313 	mov	r0, #1275068416	; 0x4c000000
  10:	e3e01000 	mvn	r1, #0	; 0x0
  14:	e5801000 	str	r1, [r0]
  18:	e59f0058 	ldr	r0, [pc, #88]	; 78 <.text+0x78>
  1c:	e3a01005 	mov	r1, #5	; 0x5
  20:	e5801000 	str	r1, [r0]
  24:	ee110f10 	mrc	15, 0, r0, cr1, cr0, {0}
  28:	e3800103 	orr	r0, r0, #-1073741824	; 0xc0000000
  2c:	ee010f10 	mcr	15, 0, r0, cr1, cr0, {0}
  30:	e59f0044 	ldr	r0, [pc, #68]	; 7c <.text+0x7c>
  34:	e59f1044 	ldr	r1, [pc, #68]	; 80 <.text+0x80>
  38:	e5801000 	str	r1, [r0]
  3c:	e3a01000 	mov	r1, #0	; 0x0
  40:	e5910000 	ldr	r0, [r1]
  44:	e5811000 	str	r1, [r1]
  48:	e5912000 	ldr	r2, [r1]
  4c:	e1510002 	cmp	r1, r2
  50:	e59fd02c 	ldr	sp, [pc, #44]	; 84 <.text+0x84>
  54:	03a0da01 	moveq	sp, #4096	; 0x1000
  58:	05810000 	streq	r0, [r1]
  5c:	eb00009b 	bl	2d0 <Init_SDRAM>
  60:	e3a01b02 	mov	r1, #2048	; 0x800
  64:	e5910000 	ldr	r0, [r1]
  68:	e3a01203 	mov	r1, #805306368	; 0x30000000
  6c:	e5810000 	str	r0, [r1]
  70:	eb000004 	bl	88 <main>

00000074 <halt>:
  74:	eafffffe 	b	74 <halt>
  78:	4c000014 	stcmi	0, cr0, [r0], {20}
  7c:	4c000004 	stcmi	0, cr0, [r0], {4}
  80:	0005c011 	andeq	ip, r5, r1, lsl r0
  84:	40001000 	andmi	r1, r0, r0

00000088 <main>:
  88:	e1a0c00d 	mov	ip, sp
  8c:	e92dd800 	stmdb	sp!, {fp, ip, lr, pc}
  90:	e24cb004 	sub	fp, ip, #4	; 0x4
  94:	eb000029 	bl	140 <Init_UART1>
  98:	e59f0030 	ldr	r0, [pc, #48]	; d0 <.text+0xd0>
  9c:	eb000079 	bl	288 <SendString>
  a0:	e59f302c 	ldr	r3, [pc, #44]	; d4 <.text+0xd4>
  a4:	e5d33000 	ldrb	r3, [r3]
  a8:	e1a00003 	mov	r0, r3
  ac:	eb00004f 	bl	1f0 <SendChar>
  b0:	e59f201c 	ldr	r2, [pc, #28]	; d4 <.text+0xd4>
  b4:	e59f3018 	ldr	r3, [pc, #24]	; d4 <.text+0xd4>
  b8:	e5d33000 	ldrb	r3, [r3]
  bc:	e2833001 	add	r3, r3, #1	; 0x1
  c0:	e5c23000 	strb	r3, [r2]
  c4:	e3a00ffa 	mov	r0, #1000	; 0x3e8
  c8:	eb000002 	bl	d8 <delay>
  cc:	eafffff3 	b	a0 <main+0x18>
  d0:	0000041c 	andeq	r0, r0, ip, lsl r4
  d4:	30000000 	andcc	r0, r0, r0

000000d8 <delay>:
  d8:	e1a0c00d 	mov	ip, sp
  dc:	e92dd800 	stmdb	sp!, {fp, ip, lr, pc}
  e0:	e24cb004 	sub	fp, ip, #4	; 0x4
  e4:	e24dd00c 	sub	sp, sp, #12	; 0xc
  e8:	e50b0010 	str	r0, [fp, #-16]
  ec:	e3a03000 	mov	r3, #0	; 0x0
  f0:	e50b3014 	str	r3, [fp, #-20]
  f4:	e51b2014 	ldr	r2, [fp, #-20]
  f8:	e51b3010 	ldr	r3, [fp, #-16]
  fc:	e1520003 	cmp	r2, r3
 100:	ca00000c 	bgt	138 <delay+0x60>
 104:	e3a03000 	mov	r3, #0	; 0x0
 108:	e50b3018 	str	r3, [fp, #-24]
 10c:	e51b3018 	ldr	r3, [fp, #-24]
 110:	e3530064 	cmp	r3, #100	; 0x64
 114:	ca000003 	bgt	128 <delay+0x50>
 118:	e51b3018 	ldr	r3, [fp, #-24]
 11c:	e2833001 	add	r3, r3, #1	; 0x1
 120:	e50b3018 	str	r3, [fp, #-24]
 124:	eafffff8 	b	10c <delay+0x34>
 128:	e51b3014 	ldr	r3, [fp, #-20]
 12c:	e2833001 	add	r3, r3, #1	; 0x1
 130:	e50b3014 	str	r3, [fp, #-20]
 134:	eaffffee 	b	f4 <delay+0x1c>
 138:	e24bd00c 	sub	sp, fp, #12	; 0xc
 13c:	e89da800 	ldmia	sp, {fp, sp, pc}

00000140 <Init_UART1>:
 140:	e1a0c00d 	mov	ip, sp
 144:	e92dd800 	stmdb	sp!, {fp, ip, lr, pc}
 148:	e24cb004 	sub	fp, ip, #4	; 0x4
 14c:	e3a02456 	mov	r2, #1442840576	; 0x56000000
 150:	e2822070 	add	r2, r2, #112	; 0x70
 154:	e3a03456 	mov	r3, #1442840576	; 0x56000000
 158:	e2833070 	add	r3, r3, #112	; 0x70
 15c:	e5933000 	ldr	r3, [r3]
 160:	e3c33c0f 	bic	r3, r3, #3840	; 0xf00
 164:	e5823000 	str	r3, [r2]
 168:	e3a02456 	mov	r2, #1442840576	; 0x56000000
 16c:	e2822070 	add	r2, r2, #112	; 0x70
 170:	e3a03456 	mov	r3, #1442840576	; 0x56000000
 174:	e2833070 	add	r3, r3, #112	; 0x70
 178:	e5933000 	ldr	r3, [r3]
 17c:	e3833c0a 	orr	r3, r3, #2560	; 0xa00
 180:	e5823000 	str	r3, [r2]
 184:	e3a02456 	mov	r2, #1442840576	; 0x56000000
 188:	e2822078 	add	r2, r2, #120	; 0x78
 18c:	e3a03456 	mov	r3, #1442840576	; 0x56000000
 190:	e2833078 	add	r3, r3, #120	; 0x78
 194:	e5933000 	ldr	r3, [r3]
 198:	e3c33030 	bic	r3, r3, #48	; 0x30
 19c:	e5823000 	str	r3, [r2]
 1a0:	e3a02901 	mov	r2, #16384	; 0x4000
 1a4:	e2822245 	add	r2, r2, #1342177284	; 0x50000004
 1a8:	e3a03901 	mov	r3, #16384	; 0x4000
 1ac:	e2833245 	add	r3, r3, #1342177284	; 0x50000004
 1b0:	e5933000 	ldr	r3, [r3]
 1b4:	e3833005 	orr	r3, r3, #5	; 0x5
 1b8:	e5823000 	str	r3, [r2]
 1bc:	e3a03205 	mov	r3, #1342177280	; 0x50000000
 1c0:	e2833901 	add	r3, r3, #16384	; 0x4000
 1c4:	e2833028 	add	r3, r3, #40	; 0x28
 1c8:	e3a0201a 	mov	r2, #26	; 0x1a
 1cc:	e5832000 	str	r2, [r3]
 1d0:	e3a02205 	mov	r2, #1342177280	; 0x50000000
 1d4:	e2822901 	add	r2, r2, #16384	; 0x4000
 1d8:	e3a03205 	mov	r3, #1342177280	; 0x50000000
 1dc:	e2833901 	add	r3, r3, #16384	; 0x4000
 1e0:	e5933000 	ldr	r3, [r3]
 1e4:	e3833003 	orr	r3, r3, #3	; 0x3
 1e8:	e5823000 	str	r3, [r2]
 1ec:	e89da800 	ldmia	sp, {fp, sp, pc}

000001f0 <SendChar>:
 1f0:	e1a0c00d 	mov	ip, sp
 1f4:	e92dd800 	stmdb	sp!, {fp, ip, lr, pc}
 1f8:	e24cb004 	sub	fp, ip, #4	; 0x4
 1fc:	e24dd004 	sub	sp, sp, #4	; 0x4
 200:	e1a03000 	mov	r3, r0
 204:	e54b300d 	strb	r3, [fp, #-13]
 208:	e3a03205 	mov	r3, #1342177280	; 0x50000000
 20c:	e2833901 	add	r3, r3, #16384	; 0x4000
 210:	e2833010 	add	r3, r3, #16	; 0x10
 214:	e5933000 	ldr	r3, [r3]
 218:	e2033004 	and	r3, r3, #4	; 0x4
 21c:	e3530000 	cmp	r3, #0	; 0x0
 220:	1a000000 	bne	228 <SendChar+0x38>
 224:	eafffff7 	b	208 <SendChar+0x18>
 228:	e3a03205 	mov	r3, #1342177280	; 0x50000000
 22c:	e2833901 	add	r3, r3, #16384	; 0x4000
 230:	e2833020 	add	r3, r3, #32	; 0x20
 234:	e55b200d 	ldrb	r2, [fp, #-13]
 238:	e5832000 	str	r2, [r3]
 23c:	e89da808 	ldmia	sp, {r3, fp, sp, pc}

00000240 <ReciveChar>:
 240:	e1a0c00d 	mov	ip, sp
 244:	e92dd800 	stmdb	sp!, {fp, ip, lr, pc}
 248:	e24cb004 	sub	fp, ip, #4	; 0x4
 24c:	e3a03205 	mov	r3, #1342177280	; 0x50000000
 250:	e2833901 	add	r3, r3, #16384	; 0x4000
 254:	e2833010 	add	r3, r3, #16	; 0x10
 258:	e5933000 	ldr	r3, [r3]
 25c:	e2033001 	and	r3, r3, #1	; 0x1
 260:	e3530000 	cmp	r3, #0	; 0x0
 264:	1a000000 	bne	26c <ReciveChar+0x2c>
 268:	eafffff7 	b	24c <ReciveChar+0xc>
 26c:	e3a03205 	mov	r3, #1342177280	; 0x50000000
 270:	e2833901 	add	r3, r3, #16384	; 0x4000
 274:	e2833024 	add	r3, r3, #36	; 0x24
 278:	e5933000 	ldr	r3, [r3]
 27c:	e20330ff 	and	r3, r3, #255	; 0xff
 280:	e1a00003 	mov	r0, r3
 284:	e89da800 	ldmia	sp, {fp, sp, pc}

00000288 <SendString>:
 288:	e1a0c00d 	mov	ip, sp
 28c:	e92dd800 	stmdb	sp!, {fp, ip, lr, pc}
 290:	e24cb004 	sub	fp, ip, #4	; 0x4
 294:	e24dd004 	sub	sp, sp, #4	; 0x4
 298:	e50b0010 	str	r0, [fp, #-16]
 29c:	e51b3010 	ldr	r3, [fp, #-16]
 2a0:	e5d33000 	ldrb	r3, [r3]
 2a4:	e3530000 	cmp	r3, #0	; 0x0
 2a8:	0a000007 	beq	2cc <SendString+0x44>
 2ac:	e51b3010 	ldr	r3, [fp, #-16]
 2b0:	e5d33000 	ldrb	r3, [r3]
 2b4:	e1a00003 	mov	r0, r3
 2b8:	ebffffcc 	bl	1f0 <SendChar>
 2bc:	e51b3010 	ldr	r3, [fp, #-16]
 2c0:	e2833001 	add	r3, r3, #1	; 0x1
 2c4:	e50b3010 	str	r3, [fp, #-16]
 2c8:	eafffff3 	b	29c <SendString+0x14>
 2cc:	e89da808 	ldmia	sp, {r3, fp, sp, pc}

000002d0 <Init_SDRAM>:
 2d0:	e1a0c00d 	mov	ip, sp
 2d4:	e92dd800 	stmdb	sp!, {fp, ip, lr, pc}
 2d8:	e24cb004 	sub	fp, ip, #4	; 0x4
 2dc:	e3a02312 	mov	r2, #1207959552	; 0x48000000
 2e0:	e3a03422 	mov	r3, #570425344	; 0x22000000
 2e4:	e5823000 	str	r3, [r2]
 2e8:	e3a02312 	mov	r2, #1207959552	; 0x48000000
 2ec:	e282201c 	add	r2, r2, #28	; 0x1c
 2f0:	e3a03906 	mov	r3, #98304	; 0x18000
 2f4:	e2833001 	add	r3, r3, #1	; 0x1
 2f8:	e5823000 	str	r3, [r2]
 2fc:	e3a02312 	mov	r2, #1207959552	; 0x48000000
 300:	e2822020 	add	r2, r2, #32	; 0x20
 304:	e3a03906 	mov	r3, #98304	; 0x18000
 308:	e2833001 	add	r3, r3, #1	; 0x1
 30c:	e5823000 	str	r3, [r2]
 310:	e3a02312 	mov	r2, #1207959552	; 0x48000000
 314:	e2822024 	add	r2, r2, #36	; 0x24
 318:	e3a03721 	mov	r3, #8650752	; 0x840000
 31c:	e2833e4f 	add	r3, r3, #1264	; 0x4f0
 320:	e2833005 	add	r3, r3, #5	; 0x5
 324:	e5823000 	str	r3, [r2]
 328:	e3a03312 	mov	r3, #1207959552	; 0x48000000
 32c:	e2833028 	add	r3, r3, #40	; 0x28
 330:	e3a020b1 	mov	r2, #177	; 0xb1
 334:	e5832000 	str	r2, [r3]
 338:	e3a03312 	mov	r3, #1207959552	; 0x48000000
 33c:	e283302c 	add	r3, r3, #44	; 0x2c
 340:	e3a02020 	mov	r2, #32	; 0x20
 344:	e5832000 	str	r2, [r3]
 348:	e3a03312 	mov	r3, #1207959552	; 0x48000000
 34c:	e2833030 	add	r3, r3, #48	; 0x30
 350:	e3a02020 	mov	r2, #32	; 0x20
 354:	e5832000 	str	r2, [r3]
 358:	e89da800 	ldmia	sp, {fp, sp, pc}

0000035c <SDRAM_Test>:
 35c:	e1a0c00d 	mov	ip, sp
 360:	e92dd800 	stmdb	sp!, {fp, ip, lr, pc}
 364:	e24cb004 	sub	fp, ip, #4	; 0x4
 368:	e24dd00c 	sub	sp, sp, #12	; 0xc
 36c:	e3a03203 	mov	r3, #805306368	; 0x30000000
 370:	e50b3010 	str	r3, [fp, #-16]
 374:	e3a03000 	mov	r3, #0	; 0x0
 378:	e50b3014 	str	r3, [fp, #-20]
 37c:	e51b2014 	ldr	r2, [fp, #-20]
 380:	e3a03ff9 	mov	r3, #996	; 0x3e4
 384:	e2833003 	add	r3, r3, #3	; 0x3
 388:	e1520003 	cmp	r2, r3
 38c:	ca000008 	bgt	3b4 <SDRAM_Test+0x58>
 390:	e51b2010 	ldr	r2, [fp, #-16]
 394:	e51b3014 	ldr	r3, [fp, #-20]
 398:	e0822003 	add	r2, r2, r3
 39c:	e3a03055 	mov	r3, #85	; 0x55
 3a0:	e5c23000 	strb	r3, [r2]
 3a4:	e51b3014 	ldr	r3, [fp, #-20]
 3a8:	e2833001 	add	r3, r3, #1	; 0x1
 3ac:	e50b3014 	str	r3, [fp, #-20]
 3b0:	eafffff1 	b	37c <SDRAM_Test+0x20>
 3b4:	e3a03000 	mov	r3, #0	; 0x0
 3b8:	e50b3014 	str	r3, [fp, #-20]
 3bc:	e51b2014 	ldr	r2, [fp, #-20]
 3c0:	e3a03ff9 	mov	r3, #996	; 0x3e4
 3c4:	e2833003 	add	r3, r3, #3	; 0x3
 3c8:	e1520003 	cmp	r2, r3
 3cc:	ca00000d 	bgt	408 <SDRAM_Test+0xac>
 3d0:	e51b2010 	ldr	r2, [fp, #-16]
 3d4:	e51b3014 	ldr	r3, [fp, #-20]
 3d8:	e0823003 	add	r3, r2, r3
 3dc:	e5d33000 	ldrb	r3, [r3]
 3e0:	e20330ff 	and	r3, r3, #255	; 0xff
 3e4:	e3530055 	cmp	r3, #85	; 0x55
 3e8:	0a000002 	beq	3f8 <SDRAM_Test+0x9c>
 3ec:	e3e03000 	mvn	r3, #0	; 0x0
 3f0:	e50b3018 	str	r3, [fp, #-24]
 3f4:	ea000005 	b	410 <SDRAM_Test+0xb4>
 3f8:	e51b3014 	ldr	r3, [fp, #-20]
 3fc:	e2833001 	add	r3, r3, #1	; 0x1
 400:	e50b3014 	str	r3, [fp, #-20]
 404:	eaffffec 	b	3bc <SDRAM_Test+0x60>
 408:	e3a03000 	mov	r3, #0	; 0x0
 40c:	e50b3018 	str	r3, [fp, #-24]
 410:	e51b0018 	ldr	r0, [fp, #-24]
 414:	e24bd00c 	sub	sp, fp, #12	; 0xc
 418:	e89da800 	ldmia	sp, {fp, sp, pc}